; Function Attrs: nounwind uwtable
define void @stbi__pnm_skip_whitespace(ptr noundef %0, ptr noundef captures(none) %1) local_unnamed_addr #2 {
  %3 = getelementptr inbounds nuw i8, ptr %0, i64 48
  %4 = getelementptr inbounds nuw i8, ptr %0, i64 16
  %5 = getelementptr inbounds nuw i8, ptr %0, i64 32
  %6 = getelementptr inbounds nuw i8, ptr %0, i64 40
  %7 = getelementptr inbounds nuw i8, ptr %0, i64 192
  %8 = getelementptr inbounds nuw i8, ptr %0, i64 200
  %9 = getelementptr inbounds nuw i8, ptr %0, i64 56
  %10 = getelementptr inbounds nuw i8, ptr %0, i64 52
  %11 = getelementptr inbounds nuw i8, ptr %0, i64 208
  %12 = getelementptr inbounds nuw i8, ptr %0, i64 184
  %13 = getelementptr inbounds nuw i8, ptr %0, i64 57
  br label %.critedge2

.critedge2:                                       ; preds = %.critedge2.backedge, %2
  %14 = load ptr, ptr %4, align 8, !tbaa !3
  %.not.i = icmp eq ptr %14, null
  br i1 %.not.i, label %stbi__at_eof.exit, label %15

15:                                               ; preds = %.critedge2
  %16 = load ptr, ptr %5, align 8, !tbaa !76
  %17 = load ptr, ptr %6, align 8, !tbaa !19
  %18 = tail call i32 %16(ptr noundef %17) #37
  %.not6.i = icmp eq i32 %18, 0
  br i1 %.not6.i, label %stbi__at_eof.exit.thread, label %19

19:                                               ; preds = %15
  %20 = load i32, ptr %3, align 8, !tbaa !11
  %21 = icmp eq i32 %20, 0
  br i1 %21, label %.critedge, label %stbi__at_eof.exit

stbi__at_eof.exit:                                ; preds = %.critedge2, %19
  %22 = load ptr, ptr %7, align 8, !tbaa !14
  %23 = load ptr, ptr %8, align 8, !tbaa !16
  %.not51 = icmp ult ptr %22, %23
  br i1 %.not51, label %stbi__at_eof.exit.thread, label %.critedge

stbi__at_eof.exit.thread:                         ; preds = %15, %stbi__at_eof.exit
  %24 = load i8, ptr %1, align 1, !tbaa !21
  switch i8 %24, label %.critedge [
    i8 32, label %stbi__pnm_isspace.exit.thread
    i8 12, label %stbi__pnm_isspace.exit.thread
    i8 11, label %stbi__pnm_isspace.exit.thread
    i8 10, label %stbi__pnm_isspace.exit.thread
    i8 9, label %stbi__pnm_isspace.exit.thread
    i8 13, label %stbi__pnm_isspace.exit.thread
  ]

stbi__pnm_isspace.exit.thread:                    ; preds = %stbi__at_eof.exit.thread, %stbi__at_eof.exit.thread, %stbi__at_eof.exit.thread, %stbi__at_eof.exit.thread, %stbi__at_eof.exit.thread, %stbi__at_eof.exit.thread
  %25 = load ptr, ptr %7, align 8, !tbaa !14
  %26 = load ptr, ptr %8, align 8, !tbaa !16
  %27 = icmp ult ptr %25, %26
  br i1 %27, label %28, label %31

28:                                               ; preds = %stbi__pnm_isspace.exit.thread
  %29 = getelementptr inbounds nuw i8, ptr %25, i64 1
  store ptr %29, ptr %7, align 8, !tbaa !14
  %30 = load i8, ptr %25, align 1, !tbaa !21
  br label %stbi__get8.exit

31:                                               ; preds = %stbi__pnm_isspace.exit.thread
  %32 = load i32, ptr %3, align 8, !tbaa !11
  %.not.i19 = icmp eq i32 %32, 0
  br i1 %.not.i19, label %stbi__get8.exit, label %33

33:                                               ; preds = %31
  %34 = load ptr, ptr %4, align 8, !tbaa !3
  %35 = load ptr, ptr %6, align 8, !tbaa !19
  %36 = load i32, ptr %10, align 4, !tbaa !20
  %37 = tail call i32 %34(ptr noundef %35, ptr noundef nonnull %9, i32 noundef %36) #37
  %38 = load ptr, ptr %7, align 8, !tbaa !14
  %39 = load ptr, ptr %11, align 8, !tbaa !13
  %40 = ptrtoint ptr %38 to i64
  %41 = ptrtoint ptr %39 to i64
  %42 = sub i64 %40, %41
  %43 = trunc i64 %42 to i32
  %44 = load i32, ptr %12, align 8, !tbaa !12
  %45 = add nsw i32 %44, %43
  store i32 %45, ptr %12, align 8, !tbaa !12
  %46 = icmp eq i32 %37, 0
  br i1 %46, label %47, label %48

47:                                               ; preds = %33
  store i32 0, ptr %3, align 8, !tbaa !11
  store i8 0, ptr %9, align 1, !tbaa !21
  br label %stbi__refill_buffer.exit.i

48:                                               ; preds = %33
  %49 = sext i32 %37 to i64
  %50 = getelementptr inbounds i8, ptr %9, i64 %49
  %.pre.i = load i8, ptr %9, align 1, !tbaa !21
  br label %stbi__refill_buffer.exit.i

stbi__refill_buffer.exit.i:                       ; preds = %48, %47
  %51 = phi i8 [ 0, %47 ], [ %.pre.i, %48 ]
  %.sink.i.i = phi ptr [ %13, %47 ], [ %50, %48 ]
  store ptr %.sink.i.i, ptr %8, align 8, !tbaa !16
  store ptr %13, ptr %7, align 8, !tbaa !14
  br label %stbi__get8.exit

stbi__get8.exit:                                  ; preds = %28, %31, %stbi__refill_buffer.exit.i
  %.0.i20 = phi i8 [ %30, %28 ], [ %51, %stbi__refill_buffer.exit.i ], [ 0, %31 ]
  store i8 %.0.i20, ptr %1, align 1, !tbaa !21
  br label %.critedge2.backedge

.critedge2.backedge:                              ; preds = %stbi__at_eof.exit28, %stbi__at_eof.exit28.thread, %stbi__at_eof.exit28.thread, %68, %stbi__get8.exit
  br label %.critedge2, !llvm.loop !384

.critedge:                                        ; preds = %stbi__at_eof.exit.thread, %19, %stbi__at_eof.exit
  %52 = load ptr, ptr %4, align 8, !tbaa !3
  %.not.i21 = icmp eq ptr %52, null
  br i1 %.not.i21, label %stbi__at_eof.exit24, label %53

53:                                               ; preds = %.critedge
  %54 = load ptr, ptr %5, align 8, !tbaa !76
  %55 = load ptr, ptr %6, align 8, !tbaa !19
  %56 = tail call i32 %54(ptr noundef %55) #37
  %.not6.i22 = icmp eq i32 %56, 0
  br i1 %.not6.i22, label %stbi__at_eof.exit24.thread, label %57

57:                                               ; preds = %53
  %58 = load i32, ptr %3, align 8, !tbaa !11
  %59 = icmp eq i32 %58, 0
  br i1 %59, label %stbi__at_eof.exit24.thread43, label %stbi__at_eof.exit24

stbi__at_eof.exit24:                              ; preds = %.critedge, %57
  %60 = load ptr, ptr %7, align 8, !tbaa !14
  %61 = load ptr, ptr %8, align 8, !tbaa !16
  %.not52 = icmp ult ptr %60, %61
  br i1 %.not52, label %stbi__at_eof.exit24.thread, label %stbi__at_eof.exit24.thread43

stbi__at_eof.exit24.thread:                       ; preds = %53, %stbi__at_eof.exit24
  %62 = load i8, ptr %1, align 1, !tbaa !21
  %.not15 = icmp eq i8 %62, 35
  br i1 %.not15, label %.preheader, label %stbi__at_eof.exit24.thread43

.preheader:                                       ; preds = %stbi__at_eof.exit24.thread, %stbi__get8.exit34
  %63 = load ptr, ptr %4, align 8, !tbaa !3
  %.not.i25 = icmp eq ptr %63, null
  br i1 %.not.i25, label %stbi__at_eof.exit28, label %64

64:                                               ; preds = %.preheader
  %65 = load ptr, ptr %5, align 8, !tbaa !76
  %66 = load ptr, ptr %6, align 8, !tbaa !19
  %67 = tail call i32 %65(ptr noundef %66) #37
  %.not6.i26 = icmp eq i32 %67, 0
  br i1 %.not6.i26, label %stbi__at_eof.exit28.thread, label %68

68:                                               ; preds = %64
  %69 = load i32, ptr %3, align 8, !tbaa !11
  %70 = icmp eq i32 %69, 0
  br i1 %70, label %.critedge2.backedge, label %stbi__at_eof.exit28

stbi__at_eof.exit28:                              ; preds = %.preheader, %68
  %71 = load ptr, ptr %7, align 8, !tbaa !14
  %72 = load ptr, ptr %8, align 8, !tbaa !16
  %.not53 = icmp ult ptr %71, %72
  br i1 %.not53, label %stbi__at_eof.exit28.thread, label %.critedge2.backedge

stbi__at_eof.exit28.thread:                       ; preds = %64, %stbi__at_eof.exit28
  %73 = load i8, ptr %1, align 1, !tbaa !21
  switch i8 %73, label %74 [
    i8 10, label %.critedge2.backedge
    i8 13, label %.critedge2.backedge
  ]

74:                                               ; preds = %stbi__at_eof.exit28.thread
  %75 = load ptr, ptr %7, align 8, !tbaa !14
  %76 = load ptr, ptr %8, align 8, !tbaa !16
  %77 = icmp ult ptr %75, %76
  br i1 %77, label %78, label %81

78:                                               ; preds = %74
  %79 = getelementptr inbounds nuw i8, ptr %75, i64 1
  store ptr %79, ptr %7, align 8, !tbaa !14
  %80 = load i8, ptr %75, align 1, !tbaa !21
  br label %stbi__get8.exit34

81:                                               ; preds = %74
  %82 = load i32, ptr %3, align 8, !tbaa !11
  %.not.i29 = icmp eq i32 %82, 0
  br i1 %.not.i29, label %stbi__get8.exit34, label %83

83:                                               ; preds = %81
  %84 = load ptr, ptr %4, align 8, !tbaa !3
  %85 = load ptr, ptr %6, align 8, !tbaa !19
  %86 = load i32, ptr %10, align 4, !tbaa !20
  %87 = tail call i32 %84(ptr noundef %85, ptr noundef nonnull %9, i32 noundef %86) #37
  %88 = load ptr, ptr %7, align 8, !tbaa !14
  %89 = load ptr, ptr %11, align 8, !tbaa !13
  %90 = ptrtoint ptr %88 to i64
  %91 = ptrtoint ptr %89 to i64
  %92 = sub i64 %90, %91
  %93 = trunc i64 %92 to i32
  %94 = load i32, ptr %12, align 8, !tbaa !12
  %95 = add nsw i32 %94, %93
  store i32 %95, ptr %12, align 8, !tbaa !12
  %96 = icmp eq i32 %87, 0
  br i1 %96, label %97, label %98

97:                                               ; preds = %83
  store i32 0, ptr %3, align 8, !tbaa !11
  store i8 0, ptr %9, align 1, !tbaa !21
  br label %stbi__refill_buffer.exit.i31

98:                                               ; preds = %83
  %99 = sext i32 %87 to i64
  %100 = getelementptr inbounds i8, ptr %9, i64 %99
  %.pre.i30 = load i8, ptr %9, align 1, !tbaa !21
  br label %stbi__refill_buffer.exit.i31

stbi__refill_buffer.exit.i31:                     ; preds = %98, %97
  %101 = phi i8 [ 0, %97 ], [ %.pre.i30, %98 ]
  %.sink.i.i32 = phi ptr [ %13, %97 ], [ %100, %98 ]
  store ptr %.sink.i.i32, ptr %8, align 8, !tbaa !16
  store ptr %13, ptr %7, align 8, !tbaa !14
  br label %stbi__get8.exit34

stbi__get8.exit34:                                ; preds = %78, %81, %stbi__refill_buffer.exit.i31
  %.0.i33 = phi i8 [ %80, %78 ], [ %101, %stbi__refill_buffer.exit.i31 ], [ 0, %81 ]
  store i8 %.0.i33, ptr %1, align 1, !tbaa !21
  br label %.preheader, !llvm.loop !385

stbi__at_eof.exit24.thread43:                     ; preds = %57, %stbi__at_eof.exit24, %stbi__at_eof.exit24.thread
  ret void
}